target datalayout = "e-m:e-p270:32:32-p271:32:32-p272:64:64-i64:64-i128:128-f80:128-n8:16:32:64-S128"
target triple = "x86_64-pc-linux-gnu"

%struct.jpeg_compress_struct = type { ptr, ptr, ptr, ptr, i32, i32, ptr, i32, i32, i32, i32, double, i32, i32, i32, ptr, [4 x ptr], [4 x ptr], [4 x ptr], [16 x i8], [16 x i8], [16 x i8], i32, ptr, i32, i32, i32, i32, i32, i32, i32, i32, i32, i8, i8, i8, i16, i16, i32, i32, i32, i32, i32, i32, i32, [4 x ptr], i32, i32, i32, [10 x i32], i32, i32, i32, i32, ptr, ptr, ptr, ptr, ptr, ptr, ptr, ptr, ptr, ptr, i32 }
%struct.arith_entropy_encoder = type { %struct.jpeg_entropy_encoder, i64, i64, i64, i64, i32, i32, [4 x i32], [4 x i32], i32, i32, [16 x ptr], [16 x ptr], [4 x i8] }
%struct.jpeg_entropy_encoder = type { ptr, ptr, ptr, ptr }
%struct.jpeg_error_mgr = type { ptr, ptr, ptr, ptr, ptr, i32, %union.anon, i32, i64, ptr, i32, ptr, i32, i32 }
%union.anon = type { [8 x i32], [48 x i8] }
%struct.jpeg_component_info = type { i32, i32, i32, i32, i32, i32, i32, i32, i32, i32, i32, i32, i32, i32, i32, i32, i32, i32, i32, ptr, ptr }
%struct.jpeg_destination_mgr = type { ptr, i64, ptr, ptr, ptr }

; Function Attrs: nounwind uwtable
define internal void @emit_byte(i32 noundef %0, ptr noundef %1) #0 {
  %3 = alloca i32, align 4
  %4 = alloca ptr, align 8
  %5 = alloca ptr, align 8
  store i32 %0, ptr %3, align 4, !tbaa !35
  store ptr %1, ptr %4, align 8, !tbaa !3
  call void @llvm.lifetime.start.p0(i64 8, ptr %5) #3
  %6 = load ptr, ptr %4, align 8, !tbaa !3
  %7 = getelementptr inbounds nuw %struct.jpeg_compress_struct, ptr %6, i32 0, i32 6
  %8 = load ptr, ptr %7, align 8, !tbaa !103
  store ptr %8, ptr %5, align 8, !tbaa !104
  %9 = load i32, ptr %3, align 4, !tbaa !35
  %10 = trunc i32 %9 to i8
  %11 = load ptr, ptr %5, align 8, !tbaa !104
  %12 = getelementptr inbounds nuw %struct.jpeg_destination_mgr, ptr %11, i32 0, i32 0
  %13 = load ptr, ptr %12, align 8, !tbaa !105
  %14 = getelementptr inbounds nuw i8, ptr %13, i32 1
  store ptr %14, ptr %12, align 8, !tbaa !105
  store i8 %10, ptr %13, align 1, !tbaa !40
  %15 = load ptr, ptr %5, align 8, !tbaa !104
  %16 = getelementptr inbounds nuw %struct.jpeg_destination_mgr, ptr %15, i32 0, i32 1
  %17 = load i64, ptr %16, align 8, !tbaa !107
  %18 = add i64 %17, -1
  store i64 %18, ptr %16, align 8, !tbaa !107
  %19 = icmp eq i64 %18, 0
  br i1 %19, label %20, label %39

20:                                               ; preds = %2
  %21 = load ptr, ptr %5, align 8, !tbaa !104
  %22 = getelementptr inbounds nuw %struct.jpeg_destination_mgr, ptr %21, i32 0, i32 3
  %23 = load ptr, ptr %22, align 8, !tbaa !108
  %24 = load ptr, ptr %4, align 8, !tbaa !3
  %25 = call i32 %23(ptr noundef %24)
  %26 = icmp ne i32 %25, 0
  br i1 %26, label %38, label %27

27:                                               ; preds = %20
  %28 = load ptr, ptr %4, align 8, !tbaa !3
  %29 = getelementptr inbounds nuw %struct.jpeg_compress_struct, ptr %28, i32 0, i32 0
  %30 = load ptr, ptr %29, align 8, !tbaa !41
  %31 = getelementptr inbounds nuw %struct.jpeg_error_mgr, ptr %30, i32 0, i32 5
  store i32 24, ptr %31, align 8, !tbaa !42
  %32 = load ptr, ptr %4, align 8, !tbaa !3
  %33 = getelementptr inbounds nuw %struct.jpeg_compress_struct, ptr %32, i32 0, i32 0
  %34 = load ptr, ptr %33, align 8, !tbaa !41
  %35 = getelementptr inbounds nuw %struct.jpeg_error_mgr, ptr %34, i32 0, i32 0
  %36 = load ptr, ptr %35, align 8, !tbaa !45
  %37 = load ptr, ptr %4, align 8, !tbaa !3
  call void %36(ptr noundef %37)
  br label %38

38:                                               ; preds = %27, %20
  br label %39

39:                                               ; preds = %38, %2
  call void @llvm.lifetime.end.p0(i64 8, ptr %5) #3
  ret void
}

; Function Attrs: nounwind uwtable
define internal void @emit_restart(ptr noundef %0, i32 noundef %1) #0 {
  %3 = alloca ptr, align 8
  %4 = alloca i32, align 4
  %5 = alloca ptr, align 8
  %6 = alloca i32, align 4
  %7 = alloca ptr, align 8
  store ptr %0, ptr %3, align 8, !tbaa !3
  store i32 %1, ptr %4, align 4, !tbaa !35
  call void @llvm.lifetime.start.p0(i64 8, ptr %5) #3
  %8 = load ptr, ptr %3, align 8, !tbaa !3
  %9 = getelementptr inbounds nuw %struct.jpeg_compress_struct, ptr %8, i32 0, i32 62
  %10 = load ptr, ptr %9, align 8, !tbaa !30
  store ptr %10, ptr %5, align 8, !tbaa !29
  call void @llvm.lifetime.start.p0(i64 4, ptr %6) #3
  call void @llvm.lifetime.start.p0(i64 8, ptr %7) #3
  %11 = load ptr, ptr %3, align 8, !tbaa !3
  call void @finish_pass(ptr noundef %11)
  %12 = load ptr, ptr %3, align 8, !tbaa !3
  call void @emit_byte(i32 noundef 255, ptr noundef %12)
  %13 = load i32, ptr %4, align 4, !tbaa !35
  %14 = add nsw i32 208, %13
  %15 = load ptr, ptr %3, align 8, !tbaa !3
  call void @emit_byte(i32 noundef %14, ptr noundef %15)
  store i32 0, ptr %6, align 4, !tbaa !35
  br label %16

16:                                               ; preds = %82, %2
  %17 = load i32, ptr %6, align 4, !tbaa !35
  %18 = load ptr, ptr %3, align 8, !tbaa !3
  %19 = getelementptr inbounds nuw %struct.jpeg_compress_struct, ptr %18, i32 0, i32 44
  %20 = load i32, ptr %19, align 4, !tbaa !50
  %21 = icmp slt i32 %17, %20
  br i1 %21, label %22, label %85

22:                                               ; preds = %16
  %23 = load ptr, ptr %3, align 8, !tbaa !3
  %24 = getelementptr inbounds nuw %struct.jpeg_compress_struct, ptr %23, i32 0, i32 45
  %25 = load i32, ptr %6, align 4, !tbaa !35
  %26 = sext i32 %25 to i64
  %27 = getelementptr inbounds [4 x ptr], ptr %24, i64 0, i64 %26
  %28 = load ptr, ptr %27, align 8, !tbaa !29
  store ptr %28, ptr %7, align 8, !tbaa !29
  %29 = load ptr, ptr %3, align 8, !tbaa !3
  %30 = getelementptr inbounds nuw %struct.jpeg_compress_struct, ptr %29, i32 0, i32 40
  %31 = load i32, ptr %30, align 4, !tbaa !46
  %32 = icmp eq i32 %31, 0
  br i1 %32, label %43, label %33

33:                                               ; preds = %22
  %34 = load ptr, ptr %3, align 8, !tbaa !3
  %35 = getelementptr inbounds nuw %struct.jpeg_compress_struct, ptr %34, i32 0, i32 50
  %36 = load i32, ptr %35, align 4, !tbaa !48
  %37 = icmp eq i32 %36, 0
  br i1 %37, label %38, label %62

38:                                               ; preds = %33
  %39 = load ptr, ptr %3, align 8, !tbaa !3
  %40 = getelementptr inbounds nuw %struct.jpeg_compress_struct, ptr %39, i32 0, i32 52
  %41 = load i32, ptr %40, align 4, !tbaa !47
  %42 = icmp eq i32 %41, 0
  br i1 %42, label %43, label %62

43:                                               ; preds = %38, %22
  %44 = load ptr, ptr %5, align 8, !tbaa !29
  %45 = getelementptr inbounds nuw %struct.arith_entropy_encoder, ptr %44, i32 0, i32 11
  %46 = load ptr, ptr %7, align 8, !tbaa !29
  %47 = getelementptr inbounds nuw %struct.jpeg_component_info, ptr %46, i32 0, i32 5
  %48 = load i32, ptr %47, align 4, !tbaa !51
  %49 = sext i32 %48 to i64
  %50 = getelementptr inbounds [16 x ptr], ptr %45, i64 0, i64 %49
  %51 = load ptr, ptr %50, align 8, !tbaa !36
  call void @llvm.memset.p0.i64(ptr align 1 %51, i8 0, i64 64, i1 false)
  %52 = load ptr, ptr %5, align 8, !tbaa !29
  %53 = getelementptr inbounds nuw %struct.arith_entropy_encoder, ptr %52, i32 0, i32 7
  %54 = load i32, ptr %6, align 4, !tbaa !35
  %55 = sext i32 %54 to i64
  %56 = getelementptr inbounds [4 x i32], ptr %53, i64 0, i64 %55
  store i32 0, ptr %56, align 4, !tbaa !35
  %57 = load ptr, ptr %5, align 8, !tbaa !29
  %58 = getelementptr inbounds nuw %struct.arith_entropy_encoder, ptr %57, i32 0, i32 8
  %59 = load i32, ptr %6, align 4, !tbaa !35
  %60 = sext i32 %59 to i64
  %61 = getelementptr inbounds [4 x i32], ptr %58, i64 0, i64 %60
  store i32 0, ptr %61, align 4, !tbaa !35
  br label %62

62:                                               ; preds = %43, %38, %33
  %63 = load ptr, ptr %3, align 8, !tbaa !3
  %64 = getelementptr inbounds nuw %struct.jpeg_compress_struct, ptr %63, i32 0, i32 40
  %65 = load i32, ptr %64, align 4, !tbaa !46
  %66 = icmp eq i32 %65, 0
  br i1 %66, label %72, label %67

67:                                               ; preds = %62
  %68 = load ptr, ptr %3, align 8, !tbaa !3
  %69 = getelementptr inbounds nuw %struct.jpeg_compress_struct, ptr %68, i32 0, i32 51
  %70 = load i32, ptr %69, align 8, !tbaa !53
  %71 = icmp ne i32 %70, 0
  br i1 %71, label %72, label %81

72:                                               ; preds = %67, %62
  %73 = load ptr, ptr %5, align 8, !tbaa !29
  %74 = getelementptr inbounds nuw %struct.arith_entropy_encoder, ptr %73, i32 0, i32 12
  %75 = load ptr, ptr %7, align 8, !tbaa !29
  %76 = getelementptr inbounds nuw %struct.jpeg_component_info, ptr %75, i32 0, i32 6
  %77 = load i32, ptr %76, align 8, !tbaa !54
  %78 = sext i32 %77 to i64
  %79 = getelementptr inbounds [16 x ptr], ptr %74, i64 0, i64 %78
  %80 = load ptr, ptr %79, align 8, !tbaa !36
  call void @llvm.memset.p0.i64(ptr align 1 %80, i8 0, i64 256, i1 false)
  br label %81

81:                                               ; preds = %72, %67
  br label %82

82:                                               ; preds = %81
  %83 = load i32, ptr %6, align 4, !tbaa !35
  %84 = add nsw i32 %83, 1
  store i32 %84, ptr %6, align 4, !tbaa !35
  br label %16, !llvm.loop !97

85:                                               ; preds = %16
  %86 = load ptr, ptr %5, align 8, !tbaa !29
  %87 = getelementptr inbounds nuw %struct.arith_entropy_encoder, ptr %86, i32 0, i32 1
  store i64 0, ptr %87, align 8, !tbaa !56
  %88 = load ptr, ptr %5, align 8, !tbaa !29
  %89 = getelementptr inbounds nuw %struct.arith_entropy_encoder, ptr %88, i32 0, i32 2
  store i64 65536, ptr %89, align 8, !tbaa !57
  %90 = load ptr, ptr %5, align 8, !tbaa !29
  %91 = getelementptr inbounds nuw %struct.arith_entropy_encoder, ptr %90, i32 0, i32 3
  store i64 0, ptr %91, align 8, !tbaa !58
  %92 = load ptr, ptr %5, align 8, !tbaa !29
  %93 = getelementptr inbounds nuw %struct.arith_entropy_encoder, ptr %92, i32 0, i32 4
  store i64 0, ptr %93, align 8, !tbaa !59
  %94 = load ptr, ptr %5, align 8, !tbaa !29
  %95 = getelementptr inbounds nuw %struct.arith_entropy_encoder, ptr %94, i32 0, i32 5
  store i32 11, ptr %95, align 8, !tbaa !60
  %96 = load ptr, ptr %5, align 8, !tbaa !29
  %97 = getelementptr inbounds nuw %struct.arith_entropy_encoder, ptr %96, i32 0, i32 6
  store i32 -1, ptr %97, align 4, !tbaa !61
  call void @llvm.lifetime.end.p0(i64 8, ptr %7) #3
  call void @llvm.lifetime.end.p0(i64 4, ptr %6) #3
  call void @llvm.lifetime.end.p0(i64 8, ptr %5) #3
  ret void
}