; Function Attrs: nounwind uwtable
define internal fastcc void @emit_restart(ptr noundef %0, i32 noundef %1) unnamed_addr #0 {
  %3 = getelementptr inbounds nuw i8, ptr %0, i64 496
  %4 = load ptr, ptr %3, align 8, !tbaa !27
  tail call void @finish_pass(ptr noundef %0)
  %5 = getelementptr inbounds nuw i8, ptr %0, i64 40
  %6 = load ptr, ptr %5, align 8, !tbaa !61
  %7 = load ptr, ptr %6, align 8, !tbaa !62
  %8 = getelementptr inbounds nuw i8, ptr %7, i64 1
  store ptr %8, ptr %6, align 8, !tbaa !62
  store i8 -1, ptr %7, align 1, !tbaa !32
  %9 = getelementptr inbounds nuw i8, ptr %6, i64 8
  %10 = load i64, ptr %9, align 8, !tbaa !64
  %11 = add i64 %10, -1
  store i64 %11, ptr %9, align 8, !tbaa !64
  %12 = icmp eq i64 %11, 0
  br i1 %12, label %13, label %emit_byte.exit

13:                                               ; preds = %2
  %14 = getelementptr inbounds nuw i8, ptr %6, i64 24
  %15 = load ptr, ptr %14, align 8, !tbaa !65
  %16 = tail call i32 %15(ptr noundef nonnull %0) #3
  %.not.i = icmp eq i32 %16, 0
  br i1 %.not.i, label %17, label %emit_byte.exit

17:                                               ; preds = %13
  %18 = load ptr, ptr %0, align 8, !tbaa !33
  %19 = getelementptr inbounds nuw i8, ptr %18, i64 40
  store i32 24, ptr %19, align 8, !tbaa !34
  %20 = load ptr, ptr %18, align 8, !tbaa !37
  tail call void %20(ptr noundef nonnull %0) #3
  br label %emit_byte.exit

emit_byte.exit:                                   ; preds = %2, %13, %17
  %21 = load ptr, ptr %5, align 8, !tbaa !61
  %22 = trunc i32 %1 to i8
  %23 = add i8 %22, -48
  %24 = load ptr, ptr %21, align 8, !tbaa !62
  %25 = getelementptr inbounds nuw i8, ptr %24, i64 1
  store ptr %25, ptr %21, align 8, !tbaa !62
  store i8 %23, ptr %24, align 1, !tbaa !32
  %26 = getelementptr inbounds nuw i8, ptr %21, i64 8
  %27 = load i64, ptr %26, align 8, !tbaa !64
  %28 = add i64 %27, -1
  store i64 %28, ptr %26, align 8, !tbaa !64
  %29 = icmp eq i64 %28, 0
  br i1 %29, label %30, label %emit_byte.exit29

30:                                               ; preds = %emit_byte.exit
  %31 = getelementptr inbounds nuw i8, ptr %21, i64 24
  %32 = load ptr, ptr %31, align 8, !tbaa !65
  %33 = tail call i32 %32(ptr noundef nonnull %0) #3
  %.not.i28 = icmp eq i32 %33, 0
  br i1 %.not.i28, label %34, label %emit_byte.exit29

34:                                               ; preds = %30
  %35 = load ptr, ptr %0, align 8, !tbaa !33
  %36 = getelementptr inbounds nuw i8, ptr %35, i64 40
  store i32 24, ptr %36, align 8, !tbaa !34
  %37 = load ptr, ptr %35, align 8, !tbaa !37
  tail call void %37(ptr noundef nonnull %0) #3
  br label %emit_byte.exit29

emit_byte.exit29:                                 ; preds = %emit_byte.exit, %30, %34
  %38 = getelementptr inbounds nuw i8, ptr %0, i64 324
  %39 = load i32, ptr %38, align 4, !tbaa !42
  %40 = icmp sgt i32 %39, 0
  br i1 %40, label %.lr.ph, label %._crit_edge

.lr.ph:                                           ; preds = %emit_byte.exit29
  %41 = getelementptr inbounds nuw i8, ptr %0, i64 328
  %42 = getelementptr inbounds nuw i8, ptr %0, i64 308
  %43 = getelementptr inbounds nuw i8, ptr %0, i64 412
  %44 = getelementptr inbounds nuw i8, ptr %0, i64 420
  %45 = getelementptr inbounds nuw i8, ptr %4, i64 112
  %46 = getelementptr inbounds nuw i8, ptr %4, i64 72
  %47 = getelementptr inbounds nuw i8, ptr %4, i64 88
  %48 = getelementptr inbounds nuw i8, ptr %0, i64 416
  %49 = getelementptr inbounds nuw i8, ptr %4, i64 240
  br label %50

50:                                               ; preds = %.lr.ph, %77
  %indvars.iv = phi i64 [ 0, %.lr.ph ], [ %indvars.iv.next, %77 ]
  %51 = getelementptr inbounds nuw [4 x ptr], ptr %41, i64 0, i64 %indvars.iv
  %52 = load ptr, ptr %51, align 8, !tbaa !43
  %53 = load i32, ptr %42, align 4, !tbaa !38
  %54 = icmp eq i32 %53, 0
  br i1 %54, label %61, label %55

55:                                               ; preds = %50
  %56 = load i32, ptr %43, align 4, !tbaa !40
  %57 = icmp eq i32 %56, 0
  br i1 %57, label %58, label %.thread

58:                                               ; preds = %55
  %59 = load i32, ptr %44, align 4, !tbaa !39
  %60 = icmp eq i32 %59, 0
  br i1 %60, label %61, label %.thread

61:                                               ; preds = %50, %58
  %62 = getelementptr inbounds nuw i8, ptr %52, i64 20
  %63 = load i32, ptr %62, align 4, !tbaa !44
  %64 = sext i32 %63 to i64
  %65 = getelementptr inbounds [16 x ptr], ptr %45, i64 0, i64 %64
  %66 = load ptr, ptr %65, align 8, !tbaa !46
  tail call void @llvm.memset.p0.i64(ptr noundef nonnull align 1 dereferenceable(64) %66, i8 0, i64 64, i1 false)
  %67 = getelementptr inbounds nuw [4 x i32], ptr %46, i64 0, i64 %indvars.iv
  store i32 0, ptr %67, align 4, !tbaa !48
  %68 = getelementptr inbounds nuw [4 x i32], ptr %47, i64 0, i64 %indvars.iv
  store i32 0, ptr %68, align 4, !tbaa !48
  %.pre = load i32, ptr %42, align 4, !tbaa !38
  %69 = icmp eq i32 %.pre, 0
  br i1 %69, label %71, label %.thread

.thread:                                          ; preds = %55, %58, %61
  %70 = load i32, ptr %48, align 8, !tbaa !49
  %.not = icmp eq i32 %70, 0
  br i1 %.not, label %77, label %71

71:                                               ; preds = %.thread, %61
  %72 = getelementptr inbounds nuw i8, ptr %52, i64 24
  %73 = load i32, ptr %72, align 8, !tbaa !50
  %74 = sext i32 %73 to i64
  %75 = getelementptr inbounds [16 x ptr], ptr %49, i64 0, i64 %74
  %76 = load ptr, ptr %75, align 8, !tbaa !46
  tail call void @llvm.memset.p0.i64(ptr noundef nonnull align 1 dereferenceable(256) %76, i8 0, i64 256, i1 false)
  br label %77

77:                                               ; preds = %.thread, %71
  %indvars.iv.next = add nuw nsw i64 %indvars.iv, 1
  %78 = load i32, ptr %38, align 4, !tbaa !42
  %79 = sext i32 %78 to i64
  %80 = icmp slt i64 %indvars.iv.next, %79
  br i1 %80, label %50, label %._crit_edge, !llvm.loop !96

._crit_edge:                                      ; preds = %77, %emit_byte.exit29
  %81 = getelementptr inbounds nuw i8, ptr %4, i64 32
  store i64 0, ptr %81, align 8, !tbaa !53
  %82 = getelementptr inbounds nuw i8, ptr %4, i64 40
  store i64 65536, ptr %82, align 8, !tbaa !54
  %83 = getelementptr inbounds nuw i8, ptr %4, i64 48
  %84 = getelementptr inbounds nuw i8, ptr %4, i64 64
  tail call void @llvm.memset.p0.i64(ptr noundef nonnull align 8 dereferenceable(16) %83, i8 0, i64 16, i1 false)
  store i32 11, ptr %84, align 8, !tbaa !55
  %85 = getelementptr inbounds nuw i8, ptr %4, i64 68
  store i32 -1, ptr %85, align 4, !tbaa !56
  ret void
}